target datalayout = "e-m:e-p270:32:32-p271:32:32-p272:64:64-i64:64-i128:128-f80:128-n8:16:32:64-S128"
target triple = "x86_64-pc-linux-gnu"

%struct._spdu_flexray_mapping = type { i32, i32, i32, i32 }

@.str.297 = private unnamed_addr constant [65 x i8] c"We currently only support 8 bit Cycles (Cycle: %i  Frame ID: %i)\00", align 1
@.str.298 = private unnamed_addr constant [69 x i8] c"We currently only support 16 bit Frame IDs (Cycle: %i  Frame ID: %i)\00", align 1

; Function Attrs: null_pointer_is_valid sspstrong uwtable
define internal zeroext i1 @update_spdu_flexray_mapping(ptr noundef %0, ptr noundef %1) #0 {
  %3 = alloca i1, align 1
  %4 = alloca ptr, align 8
  %5 = alloca ptr, align 8
  %6 = alloca ptr, align 8
  %7 = alloca i32, align 4
  store ptr %0, ptr %4, align 8
  store ptr %1, ptr %5, align 8
  call void @llvm.lifetime.start.p0(i64 8, ptr %6) #14
  %8 = load ptr, ptr %4, align 8
  store ptr %8, ptr %6, align 8
  %9 = load ptr, ptr %6, align 8
  %10 = getelementptr inbounds nuw %struct._spdu_flexray_mapping, ptr %9, i32 0, i32 1
  %11 = load i32, ptr %10, align 4
  %12 = icmp ugt i32 %11, 255
  br i1 %12, label %13, label %22

13:                                               ; preds = %2
  %14 = load ptr, ptr %6, align 8
  %15 = getelementptr inbounds nuw %struct._spdu_flexray_mapping, ptr %14, i32 0, i32 1
  %16 = load i32, ptr %15, align 4
  %17 = load ptr, ptr %6, align 8
  %18 = getelementptr inbounds nuw %struct._spdu_flexray_mapping, ptr %17, i32 0, i32 2
  %19 = load i32, ptr %18, align 4
  %20 = call noalias ptr (ptr, ptr, ...) @wmem_strdup_printf(ptr noundef null, ptr noundef @.str.297, i32 noundef %16, i32 noundef %19)
  %21 = load ptr, ptr %5, align 8
  store ptr %20, ptr %21, align 8
  store i1 false, ptr %3, align 1
  store i32 1, ptr %7, align 4
  br label %37

22:                                               ; preds = %2
  %23 = load ptr, ptr %6, align 8
  %24 = getelementptr inbounds nuw %struct._spdu_flexray_mapping, ptr %23, i32 0, i32 2
  %25 = load i32, ptr %24, align 4
  %26 = icmp ugt i32 %25, 65535
  br i1 %26, label %27, label %36

27:                                               ; preds = %22
  %28 = load ptr, ptr %6, align 8
  %29 = getelementptr inbounds nuw %struct._spdu_flexray_mapping, ptr %28, i32 0, i32 1
  %30 = load i32, ptr %29, align 4
  %31 = load ptr, ptr %6, align 8
  %32 = getelementptr inbounds nuw %struct._spdu_flexray_mapping, ptr %31, i32 0, i32 2
  %33 = load i32, ptr %32, align 4
  %34 = call noalias ptr (ptr, ptr, ...) @wmem_strdup_printf(ptr noundef null, ptr noundef @.str.298, i32 noundef %30, i32 noundef %33)
  %35 = load ptr, ptr %5, align 8
  store ptr %34, ptr %35, align 8
  store i1 false, ptr %3, align 1
  store i32 1, ptr %7, align 4
  br label %37

36:                                               ; preds = %22
  store i1 true, ptr %3, align 1
  store i32 1, ptr %7, align 4
  br label %37

37:                                               ; preds = %36, %27, %13
  call void @llvm.lifetime.end.p0(i64 8, ptr %6) #14
  %38 = load i1, ptr %3, align 1
  ret i1 %38
}