; Function Attrs: null_pointer_is_valid sspstrong uwtable
define internal noundef zeroext i1 @update_spdu_flexray_mapping(ptr noundef readonly captures(none) %0, ptr noundef writeonly captures(none) %1) #0 {
  %3 = getelementptr inbounds nuw i8, ptr %0, i64 4
  %4 = load i32, ptr %3, align 4
  %5 = icmp ugt i32 %4, 255
  %6 = getelementptr inbounds nuw i8, ptr %0, i64 8
  %7 = load i32, ptr %6, align 4
  br i1 %5, label %.sink.split, label %8

8:                                                ; preds = %2
  %9 = icmp ugt i32 %7, 65535
  br i1 %9, label %.sink.split, label %11

.sink.split:                                      ; preds = %8, %2
  %.str.298.sink = phi ptr [ @.str.297, %2 ], [ @.str.298, %8 ]
  %10 = tail call noalias ptr (ptr, ptr, ...) @wmem_strdup_printf(ptr noundef null, ptr noundef nonnull %.str.298.sink, i32 noundef %4, i32 noundef %7)
  store ptr %10, ptr %1, align 8
  br label %11

11:                                               ; preds = %.sink.split, %8
  %.0 = phi i1 [ true, %8 ], [ false, %.sink.split ]
  ret i1 %.0
}